target datalayout = "e-m:e-p270:32:32-p271:32:32-p272:64:64-i64:64-i128:128-f80:128-n8:16:32:64-S128"
target triple = "x86_64-pc-linux-gnu"

%struct.PyStatus = type { i32, ptr, ptr, i32 }
%struct._PyArgv = type { i64, i32, ptr, ptr }

; Function Attrs: nounwind uwtable
define dso_local void @Py_PreInitializeFromBytesArgs(ptr dead_on_unwind noalias writable sret(%struct.PyStatus) align 8 %0, ptr noundef %1, i64 noundef %2, ptr noundef %3) #1 {
  %5 = alloca ptr, align 8
  %6 = alloca i64, align 8
  %7 = alloca ptr, align 8
  %8 = alloca %struct._PyArgv, align 8
  store ptr %1, ptr %5, align 8, !tbaa !190
  store i64 %2, ptr %6, align 8, !tbaa !200
  store ptr %3, ptr %7, align 8, !tbaa !201
  call void @llvm.lifetime.start.p0(i64 32, ptr %8) #14
  %9 = getelementptr inbounds nuw %struct._PyArgv, ptr %8, i32 0, i32 0
  %10 = load i64, ptr %6, align 8, !tbaa !200
  store i64 %10, ptr %9, align 8, !tbaa !203
  %11 = getelementptr inbounds nuw %struct._PyArgv, ptr %8, i32 0, i32 1
  store i32 1, ptr %11, align 8, !tbaa !205
  %12 = getelementptr i8, ptr %8, i64 12
  call void @llvm.memset.p0.i64(ptr align 4 %12, i8 0, i64 4, i1 false)
  %13 = getelementptr inbounds nuw %struct._PyArgv, ptr %8, i32 0, i32 2
  %14 = load ptr, ptr %7, align 8, !tbaa !201
  store ptr %14, ptr %13, align 8, !tbaa !206
  %15 = getelementptr inbounds nuw %struct._PyArgv, ptr %8, i32 0, i32 3
  store ptr null, ptr %15, align 8, !tbaa !207
  %16 = load ptr, ptr %5, align 8, !tbaa !190
  call void @_Py_PreInitializeFromPyArgv(ptr dead_on_unwind writable sret(%struct.PyStatus) align 8 %0, ptr noundef %16, ptr noundef %8)
  call void @llvm.lifetime.end.p0(i64 32, ptr %8) #14
  ret void
}